target datalayout = "e-m:e-p270:32:32-p271:32:32-p272:64:64-i64:64-i128:128-f80:128-n8:16:32:64-S128"
target triple = "x86_64-pc-linux-gnu"

%struct._lv_obj_t = type { ptr, ptr, ptr, ptr, ptr, %struct.lv_area_t, i32, i16, i16 }
%struct.lv_area_t = type { i32, i32, i32, i32 }
%struct.lv_event_list_t = type { %struct._lv_array_t, i8 }
%struct._lv_array_t = type { ptr, i32, i32, i32, i8 }
%struct._lv_obj_spec_attr_t = type { ptr, ptr, %struct.lv_event_list_t, %struct.lv_point_t, i32, i32, i16, i16 }
%struct.lv_point_t = type { i32, i32 }

; Function Attrs: nounwind uwtable
define internal ptr @lv_obj_get_first_not_deleting_child(ptr noundef %0) #0 {
  %2 = alloca ptr, align 8
  %3 = alloca ptr, align 8
  %4 = alloca i32, align 4
  %5 = alloca i32, align 4
  %6 = alloca i32, align 4
  store ptr %0, ptr %3, align 8, !tbaa !3
  br label %7

7:                                                ; preds = %1
  %8 = load ptr, ptr %3, align 8, !tbaa !3
  %9 = icmp ne ptr %8, null
  br i1 %9, label %14, label %10

10:                                               ; preds = %7
  br label %11

11:                                               ; preds = %10
  br label %12

12:                                               ; preds = %11
  br label %13

13:                                               ; preds = %12, %13
  br label %13

14:                                               ; preds = %7
  br label %15

15:                                               ; preds = %14
  %16 = load ptr, ptr %3, align 8, !tbaa !3
  %17 = getelementptr inbounds nuw %struct._lv_obj_t, ptr %16, i32 0, i32 2
  %18 = load ptr, ptr %17, align 8, !tbaa !43
  %19 = icmp eq ptr %18, null
  br i1 %19, label %20, label %21

20:                                               ; preds = %15
  store ptr null, ptr %2, align 8
  br label %63

21:                                               ; preds = %15
  call void @llvm.lifetime.start.p0(i64 4, ptr %4) #3
  call void @llvm.lifetime.start.p0(i64 4, ptr %5) #3
  %22 = load ptr, ptr %3, align 8, !tbaa !3
  %23 = getelementptr inbounds nuw %struct._lv_obj_t, ptr %22, i32 0, i32 2
  %24 = load ptr, ptr %23, align 8, !tbaa !43
  %25 = getelementptr inbounds nuw %struct._lv_obj_spec_attr_t, ptr %24, i32 0, i32 6
  %26 = load i16, ptr %25, align 8, !tbaa !64
  %27 = zext i16 %26 to i32
  store i32 %27, ptr %5, align 4, !tbaa !37
  store i32 0, ptr %4, align 4, !tbaa !37
  br label %28

28:                                               ; preds = %58, %21
  %29 = load i32, ptr %4, align 4, !tbaa !37
  %30 = load i32, ptr %5, align 4, !tbaa !37
  %31 = icmp slt i32 %29, %30
  br i1 %31, label %32, label %61

32:                                               ; preds = %28
  %33 = load ptr, ptr %3, align 8, !tbaa !3
  %34 = getelementptr inbounds nuw %struct._lv_obj_t, ptr %33, i32 0, i32 2
  %35 = load ptr, ptr %34, align 8, !tbaa !43
  %36 = getelementptr inbounds nuw %struct._lv_obj_spec_attr_t, ptr %35, i32 0, i32 0
  %37 = load ptr, ptr %36, align 8, !tbaa !66
  %38 = load i32, ptr %4, align 4, !tbaa !37
  %39 = sext i32 %38 to i64
  %40 = getelementptr inbounds ptr, ptr %37, i64 %39
  %41 = load ptr, ptr %40, align 8, !tbaa !3
  %42 = getelementptr inbounds nuw %struct._lv_obj_t, ptr %41, i32 0, i32 8
  %43 = load i16, ptr %42, align 2
  %44 = lshr i16 %43, 12
  %45 = and i16 %44, 1
  %46 = icmp ne i16 %45, 0
  br i1 %46, label %57, label %47

47:                                               ; preds = %32
  %48 = load ptr, ptr %3, align 8, !tbaa !3
  %49 = getelementptr inbounds nuw %struct._lv_obj_t, ptr %48, i32 0, i32 2
  %50 = load ptr, ptr %49, align 8, !tbaa !43
  %51 = getelementptr inbounds nuw %struct._lv_obj_spec_attr_t, ptr %50, i32 0, i32 0
  %52 = load ptr, ptr %51, align 8, !tbaa !66
  %53 = load i32, ptr %4, align 4, !tbaa !37
  %54 = sext i32 %53 to i64
  %55 = getelementptr inbounds ptr, ptr %52, i64 %54
  %56 = load ptr, ptr %55, align 8, !tbaa !3
  store ptr %56, ptr %2, align 8
  store i32 1, ptr %6, align 4
  br label %62

57:                                               ; preds = %32
  br label %58

58:                                               ; preds = %57
  %59 = load i32, ptr %4, align 4, !tbaa !37
  %60 = add nsw i32 %59, 1
  store i32 %60, ptr %4, align 4, !tbaa !37
  br label %28, !llvm.loop !71

61:                                               ; preds = %28
  store ptr null, ptr %2, align 8
  store i32 1, ptr %6, align 4
  br label %62

62:                                               ; preds = %61, %47
  call void @llvm.lifetime.end.p0(i64 4, ptr %5) #3
  call void @llvm.lifetime.end.p0(i64 4, ptr %4) #3
  br label %63

63:                                               ; preds = %62, %20
  %64 = load ptr, ptr %2, align 8
  ret ptr %64
}

; Function Attrs: nounwind uwtable
define i32 @lv_obj_get_child_count(ptr noundef %0) #0 {
  %2 = alloca i32, align 4
  %3 = alloca ptr, align 8
  store ptr %0, ptr %3, align 8, !tbaa !3
  br label %4

4:                                                ; preds = %1
  %5 = load ptr, ptr %3, align 8, !tbaa !3
  %6 = icmp ne ptr %5, null
  br i1 %6, label %11, label %7

7:                                                ; preds = %4
  br label %8

8:                                                ; preds = %7
  br label %9

9:                                                ; preds = %8
  br label %10

10:                                               ; preds = %9, %10
  br label %10

11:                                               ; preds = %4
  br label %12

12:                                               ; preds = %11
  %13 = load ptr, ptr %3, align 8, !tbaa !3
  %14 = getelementptr inbounds nuw %struct._lv_obj_t, ptr %13, i32 0, i32 2
  %15 = load ptr, ptr %14, align 8, !tbaa !43
  %16 = icmp eq ptr %15, null
  br i1 %16, label %17, label %18

17:                                               ; preds = %12
  store i32 0, ptr %2, align 4
  br label %25

18:                                               ; preds = %12
  %19 = load ptr, ptr %3, align 8, !tbaa !3
  %20 = getelementptr inbounds nuw %struct._lv_obj_t, ptr %19, i32 0, i32 2
  %21 = load ptr, ptr %20, align 8, !tbaa !43
  %22 = getelementptr inbounds nuw %struct._lv_obj_spec_attr_t, ptr %21, i32 0, i32 6
  %23 = load i16, ptr %22, align 8, !tbaa !64
  %24 = zext i16 %23 to i32
  store i32 %24, ptr %2, align 4
  br label %25

25:                                               ; preds = %18, %17
  %26 = load i32, ptr %2, align 4
  ret i32 %26
}

; Function Attrs: nounwind uwtable
define void @lv_obj_clean(ptr noundef %0) #0 {
  %2 = alloca ptr, align 8
  %3 = alloca i32, align 4
  %4 = alloca ptr, align 8
  store ptr %0, ptr %2, align 8, !tbaa !3
  br label %5

5:                                                ; preds = %1
  br label %6

6:                                                ; preds = %5
  br label %7

7:                                                ; preds = %6
  %8 = load ptr, ptr %2, align 8, !tbaa !3
  %9 = icmp ne ptr %8, null
  br i1 %9, label %14, label %10

10:                                               ; preds = %7
  br label %11

11:                                               ; preds = %10
  br label %12

12:                                               ; preds = %11
  br label %13

13:                                               ; preds = %12, %13
  br label %13

14:                                               ; preds = %7
  br label %15

15:                                               ; preds = %14
  %16 = load ptr, ptr %2, align 8, !tbaa !3
  call void @lv_obj_invalidate(ptr noundef %16)
  call void @llvm.lifetime.start.p0(i64 4, ptr %3) #3
  %17 = load ptr, ptr %2, align 8, !tbaa !3
  %18 = call i32 @lv_obj_get_child_count(ptr noundef %17)
  store i32 %18, ptr %3, align 4, !tbaa !37
  call void @llvm.lifetime.start.p0(i64 8, ptr %4) #3
  %19 = load ptr, ptr %2, align 8, !tbaa !3
  %20 = call ptr @lv_obj_get_first_not_deleting_child(ptr noundef %19)
  store ptr %20, ptr %4, align 8, !tbaa !3
  br label %21

21:                                               ; preds = %24, %15
  %22 = load ptr, ptr %4, align 8, !tbaa !3
  %23 = icmp ne ptr %22, null
  br i1 %23, label %24, label %28

24:                                               ; preds = %21
  %25 = load ptr, ptr %4, align 8, !tbaa !3
  call void @obj_delete_core(ptr noundef %25)
  %26 = load ptr, ptr %2, align 8, !tbaa !3
  %27 = call ptr @lv_obj_get_first_not_deleting_child(ptr noundef %26)
  store ptr %27, ptr %4, align 8, !tbaa !3
  br label %21, !llvm.loop !68

28:                                               ; preds = %21
  %29 = load ptr, ptr %2, align 8, !tbaa !3
  call void @lv_obj_scroll_to(ptr noundef %29, i32 noundef 0, i32 noundef 0, i1 noundef zeroext false)
  %30 = load ptr, ptr %2, align 8, !tbaa !3
  %31 = getelementptr inbounds nuw %struct._lv_obj_t, ptr %30, i32 0, i32 2
  %32 = load ptr, ptr %31, align 8, !tbaa !43
  %33 = icmp ne ptr %32, null
  br i1 %33, label %34, label %45

34:                                               ; preds = %28
  %35 = load ptr, ptr %2, align 8, !tbaa !3
  %36 = getelementptr inbounds nuw %struct._lv_obj_t, ptr %35, i32 0, i32 2
  %37 = load ptr, ptr %36, align 8, !tbaa !43
  %38 = getelementptr inbounds nuw %struct._lv_obj_spec_attr_t, ptr %37, i32 0, i32 3
  %39 = getelementptr inbounds nuw %struct.lv_point_t, ptr %38, i32 0, i32 0
  store i32 0, ptr %39, align 8, !tbaa !69
  %40 = load ptr, ptr %2, align 8, !tbaa !3
  %41 = getelementptr inbounds nuw %struct._lv_obj_t, ptr %40, i32 0, i32 2
  %42 = load ptr, ptr %41, align 8, !tbaa !43
  %43 = getelementptr inbounds nuw %struct._lv_obj_spec_attr_t, ptr %42, i32 0, i32 3
  %44 = getelementptr inbounds nuw %struct.lv_point_t, ptr %43, i32 0, i32 1
  store i32 0, ptr %44, align 4, !tbaa !70
  br label %45

45:                                               ; preds = %34, %28
  %46 = load ptr, ptr %2, align 8, !tbaa !3
  %47 = call i32 @lv_obj_get_child_count(ptr noundef %46)
  %48 = load i32, ptr %3, align 4, !tbaa !37
  %49 = icmp ult i32 %47, %48
  br i1 %49, label %50, label %55

50:                                               ; preds = %45
  %51 = load ptr, ptr %2, align 8, !tbaa !3
  %52 = call i32 @lv_obj_send_event(ptr noundef %51, i32 noundef 42, ptr noundef null)
  %53 = load ptr, ptr %2, align 8, !tbaa !3
  %54 = call i32 @lv_obj_send_event(ptr noundef %53, i32 noundef 44, ptr noundef null)
  br label %55

55:                                               ; preds = %50, %45
  br label %56

56:                                               ; preds = %55
  br label %57

57:                                               ; preds = %56
  br label %58

58:                                               ; preds = %57
  call void @llvm.lifetime.end.p0(i64 8, ptr %4) #3
  call void @llvm.lifetime.end.p0(i64 4, ptr %3) #3
  ret void
}