; Function Attrs: nounwind uwtable
define void @lv_obj_clean(ptr noundef %0) local_unnamed_addr #0 {
  %.not = icmp eq ptr %0, null
  br i1 %.not, label %.preheader, label %2

.preheader:                                       ; preds = %1, %.preheader
  br label %.preheader

2:                                                ; preds = %1
  tail call void @lv_obj_invalidate(ptr noundef nonnull %0) #6
  %3 = getelementptr inbounds nuw i8, ptr %0, i64 16
  %4 = load ptr, ptr %3, align 8, !tbaa !37
  %5 = icmp eq ptr %4, null
  br i1 %5, label %._crit_edge, label %6

6:                                                ; preds = %2
  %7 = getelementptr inbounds nuw i8, ptr %4, i64 64
  %8 = load i16, ptr %7, align 8, !tbaa !38
  %.not4.i = icmp eq i16 %8, 0
  br i1 %.not4.i, label %._crit_edge, label %.lr.ph.i

.lr.ph.i:                                         ; preds = %6
  %9 = load ptr, ptr %4, align 8, !tbaa !42
  %wide.trip.count.i = zext i16 %8 to i64
  br label %11

10:                                               ; preds = %11
  %indvars.iv.next.i = add nuw nsw i64 %indvars.iv.i, 1
  %exitcond.not.i = icmp eq i64 %indvars.iv.next.i, %wide.trip.count.i
  br i1 %exitcond.not.i, label %._crit_edge, label %11, !llvm.loop !60

11:                                               ; preds = %10, %.lr.ph.i
  %indvars.iv.i = phi i64 [ 0, %.lr.ph.i ], [ %indvars.iv.next.i, %10 ]
  %12 = getelementptr inbounds nuw ptr, ptr %9, i64 %indvars.iv.i
  %13 = load ptr, ptr %12, align 8, !tbaa !33
  %14 = getelementptr inbounds nuw i8, ptr %13, i64 62
  %15 = load i16, ptr %14, align 2
  %16 = and i16 %15, 4096
  %.not.i19 = icmp eq i16 %16, 0
  br i1 %.not.i19, label %.lr.ph.preheader, label %10

.lr.ph.preheader:                                 ; preds = %11
  tail call fastcc void @obj_delete_core(ptr noundef %13)
  %.val1855 = load ptr, ptr %3, align 8, !tbaa !37
  %17 = icmp eq ptr %.val1855, null
  br i1 %17, label %._crit_edge, label %.lr.ph57

.lr.ph.loopexit:                                  ; preds = %23
  tail call fastcc void @obj_delete_core(ptr noundef %25)
  %.val18 = load ptr, ptr %3, align 8, !tbaa !37
  %18 = icmp eq ptr %.val18, null
  br i1 %18, label %._crit_edge, label %.lr.ph57, !llvm.loop !61

.lr.ph57:                                         ; preds = %.lr.ph.preheader, %.lr.ph.loopexit
  %.val1856 = phi ptr [ %.val18, %.lr.ph.loopexit ], [ %.val1855, %.lr.ph.preheader ]
  %19 = getelementptr inbounds nuw i8, ptr %.val1856, i64 64
  %20 = load i16, ptr %19, align 8, !tbaa !38
  %.not4.i21 = icmp eq i16 %20, 0
  br i1 %.not4.i21, label %._crit_edge, label %.lr.ph.i22

.lr.ph.i22:                                       ; preds = %.lr.ph57
  %21 = load ptr, ptr %.val1856, align 8, !tbaa !42
  %wide.trip.count.i23 = zext i16 %20 to i64
  br label %23

22:                                               ; preds = %23
  %indvars.iv.next.i26 = add nuw nsw i64 %indvars.iv.i24, 1
  %exitcond.not.i27 = icmp eq i64 %indvars.iv.next.i26, %wide.trip.count.i23
  br i1 %exitcond.not.i27, label %._crit_edge, label %23, !llvm.loop !60

23:                                               ; preds = %22, %.lr.ph.i22
  %indvars.iv.i24 = phi i64 [ 0, %.lr.ph.i22 ], [ %indvars.iv.next.i26, %22 ]
  %24 = getelementptr inbounds nuw ptr, ptr %21, i64 %indvars.iv.i24
  %25 = load ptr, ptr %24, align 8, !tbaa !33
  %26 = getelementptr inbounds nuw i8, ptr %25, i64 62
  %27 = load i16, ptr %26, align 2
  %28 = and i16 %27, 4096
  %.not.i25 = icmp eq i16 %28, 0
  br i1 %.not.i25, label %.lr.ph.loopexit, label %22

._crit_edge:                                      ; preds = %10, %.lr.ph.loopexit, %.lr.ph57, %22, %.lr.ph.preheader, %2, %6
  %.0.i35.shrunk41.shrunk = phi i16 [ 0, %6 ], [ 0, %2 ], [ %8, %.lr.ph.preheader ], [ %8, %22 ], [ %8, %.lr.ph57 ], [ %8, %.lr.ph.loopexit ], [ %8, %10 ]
  %.0.i35.shrunk41 = zext i16 %.0.i35.shrunk41.shrunk to i32
  tail call void @lv_obj_scroll_to(ptr noundef nonnull %0, i32 noundef 0, i32 noundef 0, i1 noundef zeroext false) #6
  %29 = load ptr, ptr %3, align 8, !tbaa !37
  %.not17 = icmp eq ptr %29, null
  br i1 %.not17, label %lv_obj_get_child_count.exit33, label %30

30:                                               ; preds = %._crit_edge
  %31 = getelementptr inbounds nuw i8, ptr %29, i64 48
  store i32 0, ptr %31, align 8, !tbaa !62
  %32 = getelementptr inbounds nuw i8, ptr %29, i64 52
  store i32 0, ptr %32, align 4, !tbaa !63
  %33 = getelementptr inbounds nuw i8, ptr %29, i64 64
  %34 = load i16, ptr %33, align 8, !tbaa !38
  %35 = zext i16 %34 to i32
  br label %lv_obj_get_child_count.exit33

lv_obj_get_child_count.exit33:                    ; preds = %._crit_edge, %30
  %.0.i31 = phi i32 [ %35, %30 ], [ 0, %._crit_edge ]
  %36 = icmp samesign ult i32 %.0.i31, %.0.i35.shrunk41
  br i1 %36, label %37, label %40

37:                                               ; preds = %lv_obj_get_child_count.exit33
  %38 = tail call i32 @lv_obj_send_event(ptr noundef nonnull %0, i32 noundef 42, ptr noundef null) #6
  %39 = tail call i32 @lv_obj_send_event(ptr noundef nonnull %0, i32 noundef 44, ptr noundef null) #6
  br label %40

40:                                               ; preds = %lv_obj_get_child_count.exit33, %37
  ret void
}